
teste_LCD_8bits.elf:     file format elf32-avr

Sections:
Idx Name          Size      VMA       LMA       File off  Algn
  0 .data         00000032  00800100  000003da  0000044e  2**0
                  CONTENTS, ALLOC, LOAD, DATA
  1 .text         000003da  00000000  00000000  00000074  2**1
                  CONTENTS, ALLOC, LOAD, READONLY, CODE
  2 .comment      00000030  00000000  00000000  00000480  2**0
                  CONTENTS, READONLY
  3 .note.gnu.avr.deviceinfo 00000040  00000000  00000000  000004b0  2**2
                  CONTENTS, READONLY
  4 .debug_aranges 000000a0  00000000  00000000  000004f0  2**0
                  CONTENTS, READONLY, DEBUGGING
  5 .debug_info   00001223  00000000  00000000  00000590  2**0
                  CONTENTS, READONLY, DEBUGGING
  6 .debug_abbrev 000008f5  00000000  00000000  000017b3  2**0
                  CONTENTS, READONLY, DEBUGGING
  7 .debug_line   000007a1  00000000  00000000  000020a8  2**0
                  CONTENTS, READONLY, DEBUGGING
  8 .debug_frame  0000016c  00000000  00000000  0000284c  2**2
                  CONTENTS, READONLY, DEBUGGING
  9 .debug_str    00000539  00000000  00000000  000029b8  2**0
                  CONTENTS, READONLY, DEBUGGING
 10 .debug_loc    00000998  00000000  00000000  00002ef1  2**0
                  CONTENTS, READONLY, DEBUGGING
 11 .debug_ranges 000000a0  00000000  00000000  00003889  2**0
                  CONTENTS, READONLY, DEBUGGING

Disassembly of section .text:

00000000 <__vectors>:
   0:	0c 94 3d 00 	jmp	0x7a	; 0x7a <__ctors_end>
   4:	0c 94 52 00 	jmp	0xa4	; 0xa4 <__bad_interrupt>
   8:	0c 94 52 00 	jmp	0xa4	; 0xa4 <__bad_interrupt>
   c:	0c 94 52 00 	jmp	0xa4	; 0xa4 <__bad_interrupt>
  10:	0c 94 52 00 	jmp	0xa4	; 0xa4 <__bad_interrupt>
  14:	0c 94 52 00 	jmp	0xa4	; 0xa4 <__bad_interrupt>
  18:	0c 94 52 00 	jmp	0xa4	; 0xa4 <__bad_interrupt>
  1c:	0c 94 52 00 	jmp	0xa4	; 0xa4 <__bad_interrupt>
  20:	0c 94 52 00 	jmp	0xa4	; 0xa4 <__bad_interrupt>
  24:	0c 94 52 00 	jmp	0xa4	; 0xa4 <__bad_interrupt>
  28:	0c 94 52 00 	jmp	0xa4	; 0xa4 <__bad_interrupt>
  2c:	0c 94 52 00 	jmp	0xa4	; 0xa4 <__bad_interrupt>
  30:	0c 94 52 00 	jmp	0xa4	; 0xa4 <__bad_interrupt>
  34:	0c 94 52 00 	jmp	0xa4	; 0xa4 <__bad_interrupt>
  38:	0c 94 52 00 	jmp	0xa4	; 0xa4 <__bad_interrupt>
  3c:	0c 94 52 00 	jmp	0xa4	; 0xa4 <__bad_interrupt>
  40:	0c 94 52 00 	jmp	0xa4	; 0xa4 <__bad_interrupt>
  44:	0c 94 52 00 	jmp	0xa4	; 0xa4 <__bad_interrupt>
  48:	0c 94 52 00 	jmp	0xa4	; 0xa4 <__bad_interrupt>
  4c:	0c 94 52 00 	jmp	0xa4	; 0xa4 <__bad_interrupt>
  50:	0c 94 52 00 	jmp	0xa4	; 0xa4 <__bad_interrupt>
  54:	0c 94 52 00 	jmp	0xa4	; 0xa4 <__bad_interrupt>
  58:	0c 94 52 00 	jmp	0xa4	; 0xa4 <__bad_interrupt>
  5c:	0c 94 52 00 	jmp	0xa4	; 0xa4 <__bad_interrupt>
  60:	0c 94 52 00 	jmp	0xa4	; 0xa4 <__bad_interrupt>
  64:	0c 94 52 00 	jmp	0xa4	; 0xa4 <__bad_interrupt>

00000068 <__trampolines_end>:
  68:	41 42       	sbci	r20, 0x21	; 33
  6a:	43 44       	sbci	r20, 0x43	; 67
  6c:	45 46       	sbci	r20, 0x65	; 101
  6e:	47 48       	sbci	r20, 0x87	; 135
  70:	49 4a       	sbci	r20, 0xA9	; 169
  72:	4b 4c       	sbci	r20, 0xCB	; 203
  74:	4d 4e       	sbci	r20, 0xED	; 237
  76:	4f 50       	subi	r20, 0x0F	; 15
	...

0000007a <__ctors_end>:
  7a:	11 24       	eor	r1, r1
  7c:	1f be       	out	0x3f, r1	; 63
  7e:	cf ef       	ldi	r28, 0xFF	; 255
  80:	d8 e0       	ldi	r29, 0x08	; 8
  82:	de bf       	out	0x3e, r29	; 62
  84:	cd bf       	out	0x3d, r28	; 61

00000086 <__do_copy_data>:
  86:	11 e0       	ldi	r17, 0x01	; 1
  88:	a0 e0       	ldi	r26, 0x00	; 0
  8a:	b1 e0       	ldi	r27, 0x01	; 1
  8c:	ea ed       	ldi	r30, 0xDA	; 218
  8e:	f3 e0       	ldi	r31, 0x03	; 3
  90:	02 c0       	rjmp	.+4      	; 0x96 <__do_copy_data+0x10>
  92:	05 90       	lpm	r0, Z+
  94:	0d 92       	st	X+, r0
  96:	a2 33       	cpi	r26, 0x32	; 50
  98:	b1 07       	cpc	r27, r17
  9a:	d9 f7       	brne	.-10     	; 0x92 <__do_copy_data+0xc>
  9c:	0e 94 88 01 	call	0x310	; 0x310 <main>
  a0:	0c 94 eb 01 	jmp	0x3d6	; 0x3d6 <_exit>

000000a4 <__bad_interrupt>:
  a4:	0c 94 00 00 	jmp	0	; 0x0 <__vectors>

000000a8 <Status_BF>:
void Cursor_Home(void)
{
	Escreve_Instrucao(0x02);
	//_delay_ms(2);
	while(Status_BF());
}
  a8:	2a 98       	cbi	0x05, 2	; 5
  aa:	29 9a       	sbi	0x05, 1	; 5
  ac:	85 e0       	ldi	r24, 0x05	; 5
  ae:	8a 95       	dec	r24
  b0:	f1 f7       	brne	.-4      	; 0xae <Status_BF+0x6>
  b2:	00 00       	nop
  b4:	28 9a       	sbi	0x05, 0	; 5
  b6:	85 e0       	ldi	r24, 0x05	; 5
  b8:	8a 95       	dec	r24
  ba:	f1 f7       	brne	.-4      	; 0xb8 <Status_BF+0x10>
  bc:	00 00       	nop
  be:	89 b1       	in	r24, 0x09	; 9
  c0:	28 98       	cbi	0x05, 0	; 5
  c2:	29 98       	cbi	0x05, 1	; 5
  c4:	80 e0       	ldi	r24, 0x00	; 0
  c6:	08 95       	ret

000000c8 <Leitura_Dado>:
  c8:	2a 9a       	sbi	0x05, 2	; 5
  ca:	29 9a       	sbi	0x05, 1	; 5
  cc:	85 e0       	ldi	r24, 0x05	; 5
  ce:	8a 95       	dec	r24
  d0:	f1 f7       	brne	.-4      	; 0xce <Leitura_Dado+0x6>
  d2:	00 00       	nop
  d4:	28 9a       	sbi	0x05, 0	; 5
  d6:	95 e0       	ldi	r25, 0x05	; 5
  d8:	9a 95       	dec	r25
  da:	f1 f7       	brne	.-4      	; 0xd8 <Leitura_Dado+0x10>
  dc:	00 00       	nop
  de:	89 b1       	in	r24, 0x09	; 9
  e0:	28 98       	cbi	0x05, 0	; 5
  e2:	90 ef       	ldi	r25, 0xF0	; 240
  e4:	9a 95       	dec	r25
  e6:	f1 f7       	brne	.-4      	; 0xe4 <Leitura_Dado+0x1c>
  e8:	2a 98       	cbi	0x05, 2	; 5
  ea:	29 98       	cbi	0x05, 1	; 5
  ec:	08 95       	ret

000000ee <Pulso_Enable>:
  ee:	85 e0       	ldi	r24, 0x05	; 5
  f0:	8a 95       	dec	r24
  f2:	f1 f7       	brne	.-4      	; 0xf0 <Pulso_Enable+0x2>
  f4:	00 00       	nop
  f6:	28 9a       	sbi	0x05, 0	; 5
  f8:	85 e0       	ldi	r24, 0x05	; 5
  fa:	8a 95       	dec	r24
  fc:	f1 f7       	brne	.-4      	; 0xfa <Pulso_Enable+0xc>
  fe:	00 00       	nop
 100:	28 98       	cbi	0x05, 0	; 5
 102:	08 95       	ret

00000104 <Escreve_Instrucao>:
 104:	9f ef       	ldi	r25, 0xFF	; 255
 106:	9a b9       	out	0x0a, r25	; 10
 108:	2a 98       	cbi	0x05, 2	; 5
 10a:	29 98       	cbi	0x05, 1	; 5
 10c:	8b b9       	out	0x0b, r24	; 11
 10e:	0e 94 77 00 	call	0xee	; 0xee <Pulso_Enable>
 112:	2a 98       	cbi	0x05, 2	; 5
 114:	80 ef       	ldi	r24, 0xF0	; 240
 116:	8a 95       	dec	r24
 118:	f1 f7       	brne	.-4      	; 0x116 <Escreve_Instrucao+0x12>
 11a:	1a b8       	out	0x0a, r1	; 10
 11c:	08 95       	ret

0000011e <Escreve_Dado>:
 11e:	9f ef       	ldi	r25, 0xFF	; 255
 120:	9a b9       	out	0x0a, r25	; 10
 122:	2a 9a       	sbi	0x05, 2	; 5
 124:	29 98       	cbi	0x05, 1	; 5
 126:	8b b9       	out	0x0b, r24	; 11
 128:	0e 94 77 00 	call	0xee	; 0xee <Pulso_Enable>
 12c:	2a 98       	cbi	0x05, 2	; 5
 12e:	80 ef       	ldi	r24, 0xF0	; 240
 130:	8a 95       	dec	r24
 132:	f1 f7       	brne	.-4      	; 0x130 <Escreve_Dado+0x12>
 134:	1a b8       	out	0x0a, r1	; 10
 136:	08 95       	ret

00000138 <Inicializa_LCD>:
 138:	ef 92       	push	r14
 13a:	ff 92       	push	r15
 13c:	0f 93       	push	r16
 13e:	1f 93       	push	r17
 140:	cf 93       	push	r28
 142:	df 93       	push	r29
 144:	00 d0       	rcall	.+0      	; 0x146 <Inicializa_LCD+0xe>
 146:	1f 92       	push	r1
 148:	cd b7       	in	r28, 0x3d	; 61
 14a:	de b7       	in	r29, 0x3e	; 62
 14c:	08 2f       	mov	r16, r24
 14e:	80 91 00 01 	lds	r24, 0x0100	; 0x800100 <__DATA_REGION_ORIGIN__>
 152:	90 91 01 01 	lds	r25, 0x0101	; 0x800101 <__DATA_REGION_ORIGIN__+0x1>
 156:	a0 91 02 01 	lds	r26, 0x0102	; 0x800102 <__DATA_REGION_ORIGIN__+0x2>
 15a:	89 83       	std	Y+1, r24	; 0x01
 15c:	9a 83       	std	Y+2, r25	; 0x02
 15e:	ab 83       	std	Y+3, r26	; 0x03
 160:	2a 98       	cbi	0x05, 2	; 5
 162:	29 98       	cbi	0x05, 1	; 5
 164:	28 98       	cbi	0x05, 0	; 5
 166:	8f ef       	ldi	r24, 0xFF	; 255
 168:	8a b9       	out	0x0a, r24	; 10
 16a:	84 b1       	in	r24, 0x04	; 4
 16c:	87 60       	ori	r24, 0x07	; 7
 16e:	84 b9       	out	0x04, r24	; 4
 170:	8f e5       	ldi	r24, 0x5F	; 95
 172:	9a ee       	ldi	r25, 0xEA	; 234
 174:	01 97       	sbiw	r24, 0x01	; 1
 176:	f1 f7       	brne	.-4      	; 0x174 <Inicializa_LCD+0x3c>
 178:	00 c0       	rjmp	.+0      	; 0x17a <Inicializa_LCD+0x42>
 17a:	00 00       	nop
 17c:	10 e3       	ldi	r17, 0x30	; 48
 17e:	1b b9       	out	0x0b, r17	; 11
 180:	0e 94 77 00 	call	0xee	; 0xee <Pulso_Enable>
 184:	ef e1       	ldi	r30, 0x1F	; 31
 186:	fe e4       	ldi	r31, 0x4E	; 78
 188:	31 97       	sbiw	r30, 0x01	; 1
 18a:	f1 f7       	brne	.-4      	; 0x188 <Inicializa_LCD+0x50>
 18c:	00 c0       	rjmp	.+0      	; 0x18e <Inicializa_LCD+0x56>
 18e:	00 00       	nop
 190:	1b b9       	out	0x0b, r17	; 11
 192:	0e 94 77 00 	call	0xee	; 0xee <Pulso_Enable>
 196:	8f e1       	ldi	r24, 0x1F	; 31
 198:	9e e4       	ldi	r25, 0x4E	; 78
 19a:	01 97       	sbiw	r24, 0x01	; 1
 19c:	f1 f7       	brne	.-4      	; 0x19a <Inicializa_LCD+0x62>
 19e:	00 c0       	rjmp	.+0      	; 0x1a0 <Inicializa_LCD+0x68>
 1a0:	00 00       	nop
 1a2:	1b b9       	out	0x0b, r17	; 11
 1a4:	0e 94 77 00 	call	0xee	; 0xee <Pulso_Enable>
 1a8:	ef e1       	ldi	r30, 0x1F	; 31
 1aa:	fe e4       	ldi	r31, 0x4E	; 78
 1ac:	31 97       	sbiw	r30, 0x01	; 1
 1ae:	f1 f7       	brne	.-4      	; 0x1ac <Inicializa_LCD+0x74>
 1b0:	00 c0       	rjmp	.+0      	; 0x1b2 <Inicializa_LCD+0x7a>
 1b2:	00 00       	nop
 1b4:	00 23       	and	r16, r16
 1b6:	19 f0       	breq	.+6      	; 0x1be <Inicializa_LCD+0x86>
 1b8:	88 e3       	ldi	r24, 0x38	; 56
 1ba:	8b b9       	out	0x0b, r24	; 11
 1bc:	01 c0       	rjmp	.+2      	; 0x1c0 <Inicializa_LCD+0x88>
 1be:	1b b9       	out	0x0b, r17	; 11
 1c0:	0e 94 77 00 	call	0xee	; 0xee <Pulso_Enable>
 1c4:	8f e1       	ldi	r24, 0x1F	; 31
 1c6:	9e e4       	ldi	r25, 0x4E	; 78
 1c8:	01 97       	sbiw	r24, 0x01	; 1
 1ca:	f1 f7       	brne	.-4      	; 0x1c8 <Inicializa_LCD+0x90>
 1cc:	00 c0       	rjmp	.+0      	; 0x1ce <Inicializa_LCD+0x96>
 1ce:	00 00       	nop
 1d0:	8e 01       	movw	r16, r28
 1d2:	0f 5f       	subi	r16, 0xFF	; 255
 1d4:	1f 4f       	sbci	r17, 0xFF	; 255
 1d6:	7e 01       	movw	r14, r28
 1d8:	94 e0       	ldi	r25, 0x04	; 4
 1da:	e9 0e       	add	r14, r25
 1dc:	f1 1c       	adc	r15, r1
 1de:	f8 01       	movw	r30, r16
 1e0:	81 91       	ld	r24, Z+
 1e2:	8f 01       	movw	r16, r30
 1e4:	8b b9       	out	0x0b, r24	; 11
 1e6:	0e 94 77 00 	call	0xee	; 0xee <Pulso_Enable>
 1ea:	8f e1       	ldi	r24, 0x1F	; 31
 1ec:	9e e4       	ldi	r25, 0x4E	; 78
 1ee:	01 97       	sbiw	r24, 0x01	; 1
 1f0:	f1 f7       	brne	.-4      	; 0x1ee <Inicializa_LCD+0xb6>
 1f2:	00 c0       	rjmp	.+0      	; 0x1f4 <Inicializa_LCD+0xbc>
 1f4:	00 00       	nop
 1f6:	0e 15       	cp	r16, r14
 1f8:	1f 05       	cpc	r17, r15
 1fa:	89 f7       	brne	.-30     	; 0x1de <Inicializa_LCD+0xa6>
 1fc:	1a b8       	out	0x0a, r1	; 10
 1fe:	0f 90       	pop	r0
 200:	0f 90       	pop	r0
 202:	0f 90       	pop	r0
 204:	df 91       	pop	r29
 206:	cf 91       	pop	r28
 208:	1f 91       	pop	r17
 20a:	0f 91       	pop	r16
 20c:	ff 90       	pop	r15
 20e:	ef 90       	pop	r14
 210:	08 95       	ret

00000212 <Limpa_Display>:
 212:	81 e0       	ldi	r24, 0x01	; 1
 214:	0e 94 82 00 	call	0x104	; 0x104 <Escreve_Instrucao>
 218:	8f e3       	ldi	r24, 0x3F	; 63
 21a:	9f e1       	ldi	r25, 0x1F	; 31
 21c:	01 97       	sbiw	r24, 0x01	; 1
 21e:	f1 f7       	brne	.-4      	; 0x21c <Limpa_Display+0xa>
 220:	00 c0       	rjmp	.+0      	; 0x222 <Limpa_Display+0x10>
 222:	00 00       	nop
 224:	08 95       	ret

00000226 <Desloca_Mensagem>:
}

/* Esta função desloca o cursor e/ou o display */
void Desloca_Mensagem(unsigned char deslocamento)
{
	Escreve_Instrucao(deslocamento);
 226:	0e 94 82 00 	call	0x104	; 0x104 <Escreve_Instrucao>
	//_delay_us(40);
	while(Status_BF());
 22a:	0e 94 54 00 	call	0xa8	; 0xa8 <Status_BF>
 22e:	81 11       	cpse	r24, r1
 230:	fc cf       	rjmp	.-8      	; 0x22a <Desloca_Mensagem+0x4>
}
 232:	08 95       	ret

00000234 <Display_Cursor_ON_OFF>:
 234:	0c 94 13 01 	jmp	0x226	; 0x226 <Desloca_Mensagem>

00000238 <Posiciona_Cursor>:

/* Esta função posiciona o cursor em uma coluna de uma linha */
void Posiciona_Cursor(signed char linha, signed char coluna)
{
	switch(linha)
 238:	81 30       	cpi	r24, 0x01	; 1
 23a:	19 f0       	breq	.+6      	; 0x242 <Posiciona_Cursor+0xa>
 23c:	82 30       	cpi	r24, 0x02	; 2
 23e:	19 f0       	breq	.+6      	; 0x246 <Posiciona_Cursor+0xe>
 240:	08 95       	ret
	{
		case 1: //caso seja na linha 1
		    Escreve_Instrucao(0x80 + (coluna - 1));
 242:	8f e7       	ldi	r24, 0x7F	; 127
 244:	01 c0       	rjmp	.+2      	; 0x248 <Posiciona_Cursor+0x10>
		    break;
		case 2: //caso seja na linha 2
	    	Escreve_Instrucao(0xC0 + (coluna - 1));
 246:	8f eb       	ldi	r24, 0xBF	; 191
 248:	86 0f       	add	r24, r22
 24a:	0c 94 82 00 	jmp	0x104	; 0x104 <Escreve_Instrucao>

0000024e <Testa_Display>:
	}
}

/* Esta função liga todos os pixels do display */
void Testa_Display(void)
{
 24e:	cf 93       	push	r28
void Posiciona_Cursor(signed char linha, signed char coluna)
{
	switch(linha)
	{
		case 1: //caso seja na linha 1
		    Escreve_Instrucao(0x80 + (coluna - 1));
 250:	80 e8       	ldi	r24, 0x80	; 128
 252:	0e 94 82 00 	call	0x104	; 0x104 <Escreve_Instrucao>
void Testa_Display(void)
{
	unsigned char i;
	
	Posiciona_Cursor(1, 1);
	while(Status_BF());
 256:	0e 94 54 00 	call	0xa8	; 0xa8 <Status_BF>
 25a:	81 11       	cpse	r24, r1
 25c:	fc cf       	rjmp	.-8      	; 0x256 <Testa_Display+0x8>
 25e:	c0 e0       	ldi	r28, 0x00	; 0
	
	for(i = 0; i < 32; i++)
	{
		if(i < 16)                  //preenche a primeira linha do display
 260:	c0 31       	cpi	r28, 0x10	; 16
 262:	40 f4       	brcc	.+16     	; 0x274 <Testa_Display+0x26>
		{
			Escreve_Dado(0xFF);
 264:	8f ef       	ldi	r24, 0xFF	; 255
 266:	0e 94 8f 00 	call	0x11e	; 0x11e <Escreve_Dado>
			while(Status_BF());
 26a:	0e 94 54 00 	call	0xa8	; 0xa8 <Status_BF>
 26e:	81 11       	cpse	r24, r1
 270:	fc cf       	rjmp	.-8      	; 0x26a <Testa_Display+0x1c>
 272:	15 c0       	rjmp	.+42     	; 0x29e <Testa_Display+0x50>
		}
		if(i == 16)                 //preenche o último caractere da primeira linha
 274:	c0 31       	cpi	r28, 0x10	; 16
 276:	99 f4       	brne	.+38     	; 0x29e <Testa_Display+0x50>
	{
		case 1: //caso seja na linha 1
		    Escreve_Instrucao(0x80 + (coluna - 1));
		    break;
		case 2: //caso seja na linha 2
	    	Escreve_Instrucao(0xC0 + (coluna - 1));
 278:	80 ec       	ldi	r24, 0xC0	; 192
 27a:	0e 94 82 00 	call	0x104	; 0x104 <Escreve_Instrucao>
			while(Status_BF());
		}
		if(i == 16)                 //preenche o último caractere da primeira linha
		{
			Posiciona_Cursor(2, 1);
			while(Status_BF());
 27e:	0e 94 54 00 	call	0xa8	; 0xa8 <Status_BF>
 282:	81 11       	cpse	r24, r1
 284:	fc cf       	rjmp	.-8      	; 0x27e <Testa_Display+0x30>
			Escreve_Dado(0xFF);
 286:	8f ef       	ldi	r24, 0xFF	; 255
 288:	0e 94 8f 00 	call	0x11e	; 0x11e <Escreve_Dado>
			while(Status_BF());
 28c:	0e 94 54 00 	call	0xa8	; 0xa8 <Status_BF>
 290:	81 11       	cpse	r24, r1
 292:	fc cf       	rjmp	.-8      	; 0x28c <Testa_Display+0x3e>
	unsigned char i;
	
	Posiciona_Cursor(1, 1);
	while(Status_BF());
	
	for(i = 0; i < 32; i++)
 294:	cf 5f       	subi	r28, 0xFF	; 255
 296:	c0 32       	cpi	r28, 0x20	; 32
 298:	19 f7       	brne	.-58     	; 0x260 <Testa_Display+0x12>
		{
			Escreve_Dado(0xFF);
			while(Status_BF());
		}
	}	
}
 29a:	cf 91       	pop	r28
 29c:	08 95       	ret
			Escreve_Dado(0xFF);
			while(Status_BF());
		}
		else                       //preenche toda a segunda linha do display
		{
			Escreve_Dado(0xFF);
 29e:	8f ef       	ldi	r24, 0xFF	; 255
 2a0:	0e 94 8f 00 	call	0x11e	; 0x11e <Escreve_Dado>
			while(Status_BF());
 2a4:	0e 94 54 00 	call	0xa8	; 0xa8 <Status_BF>
 2a8:	81 11       	cpse	r24, r1
 2aa:	fc cf       	rjmp	.-8      	; 0x2a4 <Testa_Display+0x56>
 2ac:	f3 cf       	rjmp	.-26     	; 0x294 <Testa_Display+0x46>

000002ae <Escreve_S_memdados>:
	}	
}

/* Esta função escreve uma string salva na mamória de dados */
void Escreve_S_memdados(char *string)
{
 2ae:	0f 93       	push	r16
 2b0:	1f 93       	push	r17
 2b2:	cf 93       	push	r28
 2b4:	df 93       	push	r29
 2b6:	ec 01       	movw	r28, r24
 2b8:	8e 01       	movw	r16, r28
	while(*string) //percorre a string até encontrar o caractere nulo
 2ba:	88 81       	ld	r24, Y
 2bc:	88 23       	and	r24, r24
 2be:	51 f0       	breq	.+20     	; 0x2d4 <Escreve_S_memdados+0x26>
	{
		while(Status_BF());      //aguarda o envio do dado anterior
 2c0:	0e 94 54 00 	call	0xa8	; 0xa8 <Status_BF>
 2c4:	81 11       	cpse	r24, r1
 2c6:	fc cf       	rjmp	.-8      	; 0x2c0 <Escreve_S_memdados+0x12>
 2c8:	21 96       	adiw	r28, 0x01	; 1
		Escreve_Dado(*string++); //envia o caracter apontado e incrementa
 2ca:	f8 01       	movw	r30, r16
 2cc:	80 81       	ld	r24, Z
 2ce:	0e 94 8f 00 	call	0x11e	; 0x11e <Escreve_Dado>
 2d2:	f2 cf       	rjmp	.-28     	; 0x2b8 <Escreve_S_memdados+0xa>
	}
}
 2d4:	df 91       	pop	r29
 2d6:	cf 91       	pop	r28
 2d8:	1f 91       	pop	r17
 2da:	0f 91       	pop	r16
 2dc:	08 95       	ret

000002de <Escreve_S_memprogm>:

/* Esta função escreve uma string salva na mamória de programa */
void Escreve_S_memprogm(const unsigned char *string)
{
 2de:	0f 93       	push	r16
 2e0:	1f 93       	push	r17
 2e2:	cf 93       	push	r28
 2e4:	df 93       	push	r29
 2e6:	ec 01       	movw	r28, r24
	while(pgm_read_byte(&(*string))) //percorre a string até encontrar o caractere nulo
 2e8:	8e 01       	movw	r16, r28
 2ea:	fe 01       	movw	r30, r28
 2ec:	84 91       	lpm	r24, Z
 2ee:	88 23       	and	r24, r24
 2f0:	51 f0       	breq	.+20     	; 0x306 <Escreve_S_memprogm+0x28>
	{
		while(Status_BF());                        //aguarda o envio do dado anterior
 2f2:	0e 94 54 00 	call	0xa8	; 0xa8 <Status_BF>
 2f6:	81 11       	cpse	r24, r1
 2f8:	fc cf       	rjmp	.-8      	; 0x2f2 <Escreve_S_memprogm+0x14>
		Escreve_Dado(pgm_read_byte(&(*string++))); //envia o caracter apontado e incrementa
 2fa:	21 96       	adiw	r28, 0x01	; 1
 2fc:	f8 01       	movw	r30, r16
 2fe:	84 91       	lpm	r24, Z
 300:	0e 94 8f 00 	call	0x11e	; 0x11e <Escreve_Dado>
 304:	f1 cf       	rjmp	.-30     	; 0x2e8 <Escreve_S_memprogm+0xa>
	}	
}
 306:	df 91       	pop	r29
 308:	cf 91       	pop	r28
 30a:	1f 91       	pop	r17
 30c:	0f 91       	pop	r16
 30e:	08 95       	ret

00000310 <main>:

const unsigned char mensagem[] PROGMEM = "ABCDEFGHIJKLMNOP";

int main(void)
{   
	UCSR0B = 0x00;
 310:	10 92 c1 00 	sts	0x00C1, r1	; 0x8000c1 <__TEXT_REGION_LENGTH__+0x7f80c1>
	
    Inicializa_LCD(LCD_2_N);
 314:	81 e0       	ldi	r24, 0x01	; 1
 316:	0e 94 9c 00 	call	0x138	; 0x138 <Inicializa_LCD>
	
	Testa_Display();
 31a:	0e 94 27 01 	call	0x24e	; 0x24e <Testa_Display>
	#else
		//round up by default
		__ticks_dc = (uint32_t)(ceil(fabs(__tmp)));
	#endif

	__builtin_avr_delay_cycles(__ticks_dc);
 31e:	2f ef       	ldi	r18, 0xFF	; 255
 320:	8b e7       	ldi	r24, 0x7B	; 123
 322:	92 e9       	ldi	r25, 0x92	; 146
 324:	21 50       	subi	r18, 0x01	; 1
 326:	80 40       	sbci	r24, 0x00	; 0
 328:	90 40       	sbci	r25, 0x00	; 0
 32a:	e1 f7       	brne	.-8      	; 0x324 <main+0x14>
 32c:	00 c0       	rjmp	.+0      	; 0x32e <main+0x1e>
 32e:	00 00       	nop
	_delay_ms(3000);
	
	Posiciona_Cursor(1, 1);
 330:	61 e0       	ldi	r22, 0x01	; 1
 332:	81 e0       	ldi	r24, 0x01	; 1
 334:	0e 94 1c 01 	call	0x238	; 0x238 <Posiciona_Cursor>
	Limpa_Display();
 338:	0e 94 09 01 	call	0x212	; 0x212 <Limpa_Display>
	Display_Cursor_ON_OFF(LCD_DSP_ON_CS_OFF);
 33c:	8c e0       	ldi	r24, 0x0C	; 12
 33e:	0e 94 1a 01 	call	0x234	; 0x234 <Display_Cursor_ON_OFF>
	Escreve_S_memprogm(mensagem);
 342:	88 e6       	ldi	r24, 0x68	; 104
 344:	90 e0       	ldi	r25, 0x00	; 0
 346:	0e 94 6f 01 	call	0x2de	; 0x2de <Escreve_S_memprogm>
	Posiciona_Cursor(2, 1);	
 34a:	61 e0       	ldi	r22, 0x01	; 1
 34c:	82 e0       	ldi	r24, 0x02	; 2
 34e:	0e 94 1c 01 	call	0x238	; 0x238 <Posiciona_Cursor>
	Escreve_S_memdados("QRSTUVWXYZ012345");
 352:	83 e0       	ldi	r24, 0x03	; 3
 354:	91 e0       	ldi	r25, 0x01	; 1
 356:	0e 94 57 01 	call	0x2ae	; 0x2ae <Escreve_S_memdados>
 35a:	2f ef       	ldi	r18, 0xFF	; 255
 35c:	87 ea       	ldi	r24, 0xA7	; 167
 35e:	91 e6       	ldi	r25, 0x61	; 97
 360:	21 50       	subi	r18, 0x01	; 1
 362:	80 40       	sbci	r24, 0x00	; 0
 364:	90 40       	sbci	r25, 0x00	; 0
 366:	e1 f7       	brne	.-8      	; 0x360 <main+0x50>
 368:	00 c0       	rjmp	.+0      	; 0x36a <main+0x5a>
 36a:	00 00       	nop
 36c:	c8 e2       	ldi	r28, 0x28	; 40
	_delay_ms(2000);
	
	unsigned char i = 40;
	while(i)
	{
		Desloca_Mensagem(LCD_DSL_MS_RG);
 36e:	8c e1       	ldi	r24, 0x1C	; 28
 370:	0e 94 13 01 	call	0x226	; 0x226 <Desloca_Mensagem>
 374:	2f ef       	ldi	r18, 0xFF	; 255
 376:	80 e7       	ldi	r24, 0x70	; 112
 378:	92 e0       	ldi	r25, 0x02	; 2
 37a:	21 50       	subi	r18, 0x01	; 1
 37c:	80 40       	sbci	r24, 0x00	; 0
 37e:	90 40       	sbci	r25, 0x00	; 0
 380:	e1 f7       	brne	.-8      	; 0x37a <main+0x6a>
 382:	00 c0       	rjmp	.+0      	; 0x384 <main+0x74>
 384:	00 00       	nop
 386:	c1 50       	subi	r28, 0x01	; 1
	Posiciona_Cursor(2, 1);	
	Escreve_S_memdados("QRSTUVWXYZ012345");
	_delay_ms(2000);
	
	unsigned char i = 40;
	while(i)
 388:	91 f7       	brne	.-28     	; 0x36e <main+0x5e>
 38a:	2f ef       	ldi	r18, 0xFF	; 255
 38c:	83 ed       	ldi	r24, 0xD3	; 211
 38e:	90 e3       	ldi	r25, 0x30	; 48
 390:	21 50       	subi	r18, 0x01	; 1
 392:	80 40       	sbci	r24, 0x00	; 0
 394:	90 40       	sbci	r25, 0x00	; 0
 396:	e1 f7       	brne	.-8      	; 0x390 <main+0x80>
 398:	00 c0       	rjmp	.+0      	; 0x39a <main+0x8a>
 39a:	00 00       	nop
	}	
	
	_delay_ms(1000);
	
	unsigned char letra;
	Limpa_Display();
 39c:	0e 94 09 01 	call	0x212	; 0x212 <Limpa_Display>
	Posiciona_Cursor(1, 1);
 3a0:	61 e0       	ldi	r22, 0x01	; 1
 3a2:	81 e0       	ldi	r24, 0x01	; 1
 3a4:	0e 94 1c 01 	call	0x238	; 0x238 <Posiciona_Cursor>
	Escreve_S_memdados("Microcontrolador");
 3a8:	84 e1       	ldi	r24, 0x14	; 20
 3aa:	91 e0       	ldi	r25, 0x01	; 1
 3ac:	0e 94 57 01 	call	0x2ae	; 0x2ae <Escreve_S_memdados>
	Posiciona_Cursor(1, 3);
 3b0:	63 e0       	ldi	r22, 0x03	; 3
 3b2:	81 e0       	ldi	r24, 0x01	; 1
 3b4:	0e 94 1c 01 	call	0x238	; 0x238 <Posiciona_Cursor>
	letra = Leitura_Dado();
 3b8:	0e 94 64 00 	call	0xc8	; 0xc8 <Leitura_Dado>
 3bc:	c8 2f       	mov	r28, r24
	Posiciona_Cursor(2, 1);
 3be:	61 e0       	ldi	r22, 0x01	; 1
 3c0:	82 e0       	ldi	r24, 0x02	; 2
 3c2:	0e 94 1c 01 	call	0x238	; 0x238 <Posiciona_Cursor>
	Escreve_S_memdados("POS(1, 3): ");
 3c6:	85 e2       	ldi	r24, 0x25	; 37
 3c8:	91 e0       	ldi	r25, 0x01	; 1
 3ca:	0e 94 57 01 	call	0x2ae	; 0x2ae <Escreve_S_memdados>
	Escreve_Dado(letra);
 3ce:	8c 2f       	mov	r24, r28
 3d0:	0e 94 8f 00 	call	0x11e	; 0x11e <Escreve_Dado>
 3d4:	ff cf       	rjmp	.-2      	; 0x3d4 <main+0xc4>

000003d6 <_exit>:
 3d6:	f8 94       	cli

000003d8 <__stop_program>:
 3d8:	ff cf       	rjmp	.-2      	; 0x3d8 <__stop_program>
